; Function Attrs: nounwind uwtable
define internal fastcc range(i32 1, 0) i32 @session_inflate_handle_invalid_stream(ptr noundef %0, ptr noundef %1) unnamed_addr #1 {
  %3 = getelementptr inbounds nuw i8, ptr %1, i64 8
  %4 = load i32, ptr %3, align 8, !tbaa !111
  %5 = tail call i32 @nghttp2_session_add_rst_stream(ptr noundef %0, i32 noundef %4, i32 noundef 7)
  %.fr = freeze i32 %5
  %.not.i.i = icmp eq i32 %.fr, 0
  br i1 %.not.i.i, label %6, label %session_handle_invalid_stream.exit

6:                                                ; preds = %2
  %7 = getelementptr inbounds nuw i8, ptr %0, i64 2368
  %8 = load ptr, ptr %7, align 8, !tbaa !190
  %.not13.i.i = icmp eq ptr %8, null
  br i1 %.not13.i.i, label %session_handle_invalid_stream.exit.thread, label %9

9:                                                ; preds = %6
  %10 = getelementptr inbounds nuw i8, ptr %0, i64 2568
  %11 = load ptr, ptr %10, align 8, !tbaa !89
  %12 = tail call i32 %8(ptr noundef nonnull %0, ptr noundef nonnull %1, i32 noundef range(i32 -533, -523) -533, ptr noundef %11) #20
  %.not14.i.i = icmp eq i32 %12, 0
  br i1 %.not14.i.i, label %session_handle_invalid_stream.exit.thread, label %session_handle_invalid_stream.exit.thread7

session_handle_invalid_stream.exit:               ; preds = %2
  %13 = icmp sgt i32 %.fr, -901
  br i1 %13, label %session_handle_invalid_stream.exit.thread, label %session_handle_invalid_stream.exit.thread7

session_handle_invalid_stream.exit.thread:        ; preds = %9, %6, %session_handle_invalid_stream.exit
  br label %session_handle_invalid_stream.exit.thread7

session_handle_invalid_stream.exit.thread7:       ; preds = %9, %session_handle_invalid_stream.exit, %session_handle_invalid_stream.exit.thread
  %14 = phi i32 [ -103, %session_handle_invalid_stream.exit.thread ], [ %.fr, %session_handle_invalid_stream.exit ], [ -902, %9 ]
  ret i32 %14
}